; Function Attrs: mustprogress uwtable
define void @_ZN2cv3LDAC2ERKNS_11_InputArrayES3_i(ptr noundef nonnull align 8 dereferenceable(200) %0, ptr noundef nonnull align 8 dereferenceable(24) %1, ptr noundef nonnull align 8 dereferenceable(24) %2, i32 noundef %3) unnamed_addr #3 align 2 personality ptr @__gxx_personality_v0 {
  store i32 %3, ptr %0, align 8
  %5 = getelementptr inbounds i8, ptr %0, i64 8
  tail call void @_ZN2cv3MatC1Ev(ptr noundef nonnull align 8 dereferenceable(96) %5) #19
  %6 = getelementptr inbounds i8, ptr %0, i64 104
  tail call void @_ZN2cv3MatC1Ev(ptr noundef nonnull align 8 dereferenceable(96) %6) #19
  invoke void @_ZN2cv3LDA7computeERKNS_11_InputArrayES3_(ptr noundef nonnull align 8 dereferenceable(200) %0, ptr noundef nonnull align 8 dereferenceable(24) %1, ptr noundef nonnull align 8 dereferenceable(24) %2)
          to label %7 unwind label %8

7:                                                ; preds = %4
  ret void

8:                                                ; preds = %4
  %9 = landingpad { ptr, i32 }
          cleanup
  tail call void @_ZN2cv3MatD1Ev(ptr noundef nonnull align 8 dereferenceable(96) %6) #19
  tail call void @_ZN2cv3MatD1Ev(ptr noundef nonnull align 8 dereferenceable(96) %5) #19
  resume { ptr, i32 } %9
}